; ModuleID = '38/1641.c'
source_filename = "38/1641.c"
target datalayout = "e-m:e-p270:32:32-p271:32:32-p272:64:64-i64:64-f80:128-n8:16:32:64-S128"
target triple = "x86_64-pc-linux-gnu"

@.str = private unnamed_addr constant [3 x i8] c"%d\00", align 1
@.str.1 = private unnamed_addr constant [4 x i8] c"%lf\00", align 1
@.str.2 = private unnamed_addr constant [7 x i8] c"%.5lf\0A\00", align 1

; Function Attrs: noinline nounwind uwtable
define dso_local i32 @main() #0 {
  %1 = alloca i32, align 4
  %2 = alloca [100 x double], align 16
  %3 = alloca double*, align 8
  %4 = alloca i32, align 4
  %5 = alloca i32, align 4
  %6 = alloca i32, align 4
  %7 = alloca i32, align 4
  store i32 0, i32* %1, align 4
  %8 = getelementptr inbounds [100 x double], [100 x double]* %2, i64 0, i64 0
  store double* %8, double** %3, align 8
  %9 = call i32 (i8*, ...) @__isoc99_scanf(i8* getelementptr inbounds ([3 x i8], [3 x i8]* @.str, i64 0, i64 0), i32* %4)
  store i32 0, i32* %6, align 4
  br label %10

10:                                               ; preds = %34, %0
  %11 = load i32, i32* %6, align 4
  %12 = load i32, i32* %4, align 4
  %13 = icmp slt i32 %11, %12
  br i1 %13, label %14, label %37

14:                                               ; preds = %10
  %15 = call i32 (i8*, ...) @__isoc99_scanf(i8* getelementptr inbounds ([3 x i8], [3 x i8]* @.str, i64 0, i64 0), i32* %5)
  store i32 0, i32* %7, align 4
  br label %16

16:                                               ; preds = %26, %14
  %17 = load i32, i32* %7, align 4
  %18 = load i32, i32* %5, align 4
  %19 = icmp slt i32 %17, %18
  br i1 %19, label %20, label %29

20:                                               ; preds = %16
  %21 = load double*, double** %3, align 8
  %22 = load i32, i32* %7, align 4
  %23 = sext i32 %22 to i64
  %24 = getelementptr inbounds double, double* %21, i64 %23
  %25 = call i32 (i8*, ...) @__isoc99_scanf(i8* getelementptr inbounds ([4 x i8], [4 x i8]* @.str.1, i64 0, i64 0), double* %24)
  br label %26

26:                                               ; preds = %20
  %27 = load i32, i32* %7, align 4
  %28 = add nsw i32 %27, 1
  store i32 %28, i32* %7, align 4
  br label %16

29:                                               ; preds = %16
  %30 = load double*, double** %3, align 8
  %31 = load i32, i32* %5, align 4
  %32 = call double @fangjungen(double* %30, i32 %31)
  %33 = call i32 (i8*, ...) @printf(i8* getelementptr inbounds ([7 x i8], [7 x i8]* @.str.2, i64 0, i64 0), double %32)
  br label %34

34:                                               ; preds = %29
  %35 = load i32, i32* %6, align 4
  %36 = add nsw i32 %35, 1
  store i32 %36, i32* %6, align 4
  br label %10

37:                                               ; preds = %10
  ret i32 0
}

declare dso_local i32 @__isoc99_scanf(i8*, ...) #1

declare dso_local i32 @printf(i8*, ...) #1

; Function Attrs: noinline nounwind uwtable
define dso_local double @fangjungen(double* %0, i32 %1) #0 {
  %3 = alloca double*, align 8
  %4 = alloca i32, align 4
  %5 = alloca i32, align 4
  %6 = alloca double, align 8
  %7 = alloca double, align 8
  %8 = alloca double, align 8
  store double* %0, double** %3, align 8
  store i32 %1, i32* %4, align 4
  store double 0.000000e+00, double* %6, align 8
  store i32 0, i32* %5, align 4
  br label %9

9:                                                ; preds = %21, %2
  %10 = load i32, i32* %5, align 4
  %11 = load i32, i32* %4, align 4
  %12 = icmp slt i32 %10, %11
  br i1 %12, label %13, label %24

13:                                               ; preds = %9
  %14 = load double, double* %6, align 8
  %15 = load double*, double** %3, align 8
  %16 = load i32, i32* %5, align 4
  %17 = sext i32 %16 to i64
  %18 = getelementptr inbounds double, double* %15, i64 %17
  %19 = load double, double* %18, align 8
  %20 = fadd double %14, %19
  store double %20, double* %6, align 8
  br label %21

21:                                               ; preds = %13
  %22 = load i32, i32* %5, align 4
  %23 = add nsw i32 %22, 1
  store i32 %23, i32* %5, align 4
  br label %9

24:                                               ; preds = %9
  %25 = load double, double* %6, align 8
  %26 = load i32, i32* %4, align 4
  %27 = sitofp i32 %26 to double
  %28 = fdiv double %25, %27
  store double %28, double* %7, align 8
  store double 0.000000e+00, double* %6, align 8
  store i32 0, i32* %5, align 4
  br label %29

29:                                               ; preds = %51, %24
  %30 = load i32, i32* %5, align 4
  %31 = load i32, i32* %4, align 4
  %32 = icmp slt i32 %30, %31
  br i1 %32, label %33, label %54

33:                                               ; preds = %29
  %34 = load double, double* %6, align 8
  %35 = load double*, double** %3, align 8
  %36 = load i32, i32* %5, align 4
  %37 = sext i32 %36 to i64
  %38 = getelementptr inbounds double, double* %35, i64 %37
  %39 = load double, double* %38, align 8
  %40 = load double, double* %7, align 8
  %41 = fsub double %39, %40
  %42 = load double*, double** %3, align 8
  %43 = load i32, i32* %5, align 4
  %44 = sext i32 %43 to i64
  %45 = getelementptr inbounds double, double* %42, i64 %44
  %46 = load double, double* %45, align 8
  %47 = load double, double* %7, align 8
  %48 = fsub double %46, %47
  %49 = fmul double %41, %48
  %50 = fadd double %34, %49
  store double %50, double* %6, align 8
  br label %51

51:                                               ; preds = %33
  %52 = load i32, i32* %5, align 4
  %53 = add nsw i32 %52, 1
  store i32 %53, i32* %5, align 4
  br label %29

54:                                               ; preds = %29
  %55 = load double, double* %6, align 8
  %56 = load i32, i32* %4, align 4
  %57 = sitofp i32 %56 to double
  %58 = fdiv double %55, %57
  %59 = call double @sqrt(double %58) #3
  store double %59, double* %8, align 8
  %60 = load double, double* %8, align 8
  ret double %60
}

; Function Attrs: nounwind
declare dso_local double @sqrt(double) #2


!llvm.module.flags = !{!0}
!llvm.ident = !{!1}

!0 = !{i32 1, !"wchar_size", i32 4}
!1 = !{!"clang version 10.0.0-4ubuntu1 "}
